; Function Attrs: nounwind uwtable
define internal void @aead_ssl3_cleanup(ptr noundef captures(none) %0) #1 {
  %2 = getelementptr inbounds nuw i8, ptr %0, i64 8
  %3 = load ptr, ptr %2, align 8, !tbaa !6
  %4 = tail call i32 @EVP_CIPHER_CTX_cleanup(ptr noundef %3) #7
  %5 = getelementptr inbounds nuw i8, ptr %3, i64 152
  %6 = tail call i32 @EVP_MD_CTX_cleanup(ptr noundef nonnull %5) #7
  tail call void @free(ptr noundef %3) #7
  store ptr null, ptr %2, align 8, !tbaa !6
  ret void
}